; Function Attrs: mustprogress uwtable
define void @_ZN3nix8fetchers8getCacheEv(ptr dead_on_unwind noalias writable sret(%"class.nix::ref") align 8 %0) local_unnamed_addr #4 personality ptr @__gxx_personality_v0 {
  %2 = alloca %"class.std::shared_ptr", align 8
  %3 = load atomic i8, ptr @_ZGVZN3nix8fetchers8getCacheEvE5cache acquire, align 8
  %4 = icmp eq i8 %3, 0
  br i1 %4, label %5, label %10, !prof !4

5:                                                ; preds = %1
  %6 = tail call i32 @__cxa_guard_acquire(ptr nonnull @_ZGVZN3nix8fetchers8getCacheEvE5cache) #25
  %.not = icmp eq i32 %6, 0
  br i1 %.not, label %10, label %7

7:                                                ; preds = %5
  invoke void @_ZSt11make_sharedIN3nix8fetchers9CacheImplEJEESt10shared_ptrIT_EDpOT0_(ptr dead_on_unwind nonnull writable sret(%"class.std::shared_ptr.0") align 8 @_ZZN3nix8fetchers8getCacheEvE5cache)
          to label %8 unwind label %75

8:                                                ; preds = %7
  %9 = tail call i32 @__cxa_atexit(ptr nonnull @_ZNSt10shared_ptrIN3nix8fetchers9CacheImplEED2Ev, ptr nonnull @_ZZN3nix8fetchers8getCacheEvE5cache, ptr nonnull @__dso_handle) #25
  tail call void @__cxa_guard_release(ptr nonnull @_ZGVZN3nix8fetchers8getCacheEvE5cache) #25
  br label %10

10:                                               ; preds = %8, %5, %1
  %11 = load ptr, ptr @_ZZN3nix8fetchers8getCacheEvE5cache, align 8
  store ptr %11, ptr %2, align 8
  %12 = getelementptr inbounds i8, ptr %2, i64 8
  %13 = load ptr, ptr getelementptr inbounds (%"class.std::shared_ptr.0", ptr @_ZZN3nix8fetchers8getCacheEvE5cache, i64 0, i32 0, i32 1, i32 0), align 8
  store ptr %13, ptr %12, align 8
  %.not.i.i.i = icmp eq ptr %13, null
  br i1 %.not.i.i.i, label %_ZNSt10shared_ptrIN3nix8fetchers5CacheEEC2INS1_9CacheImplEvEERKS_IT_E.exit.thread, label %15

_ZNSt10shared_ptrIN3nix8fetchers5CacheEEC2INS1_9CacheImplEvEERKS_IT_E.exit.thread: ; preds = %10
  store ptr %11, ptr %0, align 8
  %14 = getelementptr inbounds i8, ptr %0, i64 8
  store ptr null, ptr %14, align 8
  br label %_ZNSt10shared_ptrIN3nix8fetchers5CacheEEC2ERKS3_.exit.i

15:                                               ; preds = %10
  %16 = getelementptr inbounds i8, ptr %13, i64 8
  %17 = load i8, ptr @__libc_single_threaded, align 1
  %.not.i.i.i.i = icmp eq i8 %17, 0
  %18 = getelementptr inbounds i8, ptr %0, i64 8
  br i1 %.not.i.i.i.i, label %_ZNSt10shared_ptrIN3nix8fetchers5CacheEEC2INS1_9CacheImplEvEERKS_IT_E.exit, label %_ZNSt10shared_ptrIN3nix8fetchers5CacheEEC2INS1_9CacheImplEvEERKS_IT_E.exit.thread10

_ZNSt10shared_ptrIN3nix8fetchers5CacheEEC2INS1_9CacheImplEvEERKS_IT_E.exit.thread10: ; preds = %15
  %19 = load i32, ptr %16, align 4
  %20 = add nsw i32 %19, 1
  store i32 %20, ptr %16, align 4
  store ptr %11, ptr %0, align 8
  store ptr %13, ptr %18, align 8
  br label %22

_ZNSt10shared_ptrIN3nix8fetchers5CacheEEC2INS1_9CacheImplEvEERKS_IT_E.exit: ; preds = %15
  %21 = atomicrmw volatile add ptr %16, i32 1 acq_rel, align 4
  %.pr.pre = load ptr, ptr %12, align 8
  %.pre = load ptr, ptr %2, align 8
  store ptr %.pre, ptr %0, align 8
  store ptr %.pr.pre, ptr %18, align 8
  %.not.i.i.i.i3 = icmp eq ptr %.pr.pre, null
  br i1 %.not.i.i.i.i3, label %_ZNSt10shared_ptrIN3nix8fetchers5CacheEEC2ERKS3_.exit.i, label %22

22:                                               ; preds = %_ZNSt10shared_ptrIN3nix8fetchers5CacheEEC2INS1_9CacheImplEvEERKS_IT_E.exit.thread10, %_ZNSt10shared_ptrIN3nix8fetchers5CacheEEC2INS1_9CacheImplEvEERKS_IT_E.exit
  %.pr13 = phi ptr [ %13, %_ZNSt10shared_ptrIN3nix8fetchers5CacheEEC2INS1_9CacheImplEvEERKS_IT_E.exit.thread10 ], [ %.pr.pre, %_ZNSt10shared_ptrIN3nix8fetchers5CacheEEC2INS1_9CacheImplEvEERKS_IT_E.exit ]
  %23 = phi ptr [ %11, %_ZNSt10shared_ptrIN3nix8fetchers5CacheEEC2INS1_9CacheImplEvEERKS_IT_E.exit.thread10 ], [ %.pre, %_ZNSt10shared_ptrIN3nix8fetchers5CacheEEC2INS1_9CacheImplEvEERKS_IT_E.exit ]
  %24 = getelementptr inbounds i8, ptr %.pr13, i64 8
  %25 = load i8, ptr @__libc_single_threaded, align 1
  %.not.i.i.i.i.i = icmp eq i8 %25, 0
  br i1 %.not.i.i.i.i.i, label %29, label %26

26:                                               ; preds = %22
  %27 = load i32, ptr %24, align 4
  %28 = add nsw i32 %27, 1
  store i32 %28, ptr %24, align 4
  br label %_ZNSt10shared_ptrIN3nix8fetchers5CacheEEC2ERKS3_.exit.i

29:                                               ; preds = %22
  %30 = atomicrmw volatile add ptr %24, i32 1 acq_rel, align 4
  %.pr7.pre = load ptr, ptr %2, align 8
  br label %_ZNSt10shared_ptrIN3nix8fetchers5CacheEEC2ERKS3_.exit.i

_ZNSt10shared_ptrIN3nix8fetchers5CacheEEC2ERKS3_.exit.i: ; preds = %29, %26, %_ZNSt10shared_ptrIN3nix8fetchers5CacheEEC2INS1_9CacheImplEvEERKS_IT_E.exit.thread, %_ZNSt10shared_ptrIN3nix8fetchers5CacheEEC2INS1_9CacheImplEvEERKS_IT_E.exit
  %31 = phi ptr [ %11, %_ZNSt10shared_ptrIN3nix8fetchers5CacheEEC2INS1_9CacheImplEvEERKS_IT_E.exit.thread ], [ %.pre, %_ZNSt10shared_ptrIN3nix8fetchers5CacheEEC2INS1_9CacheImplEvEERKS_IT_E.exit ], [ %23, %26 ], [ %.pr7.pre, %29 ]
  %.not.i = icmp eq ptr %31, null
  br i1 %.not.i, label %32, label %_ZN3nix3refINS_8fetchers5CacheEEC2ERKSt10shared_ptrIS2_E.exit

32:                                               ; preds = %_ZNSt10shared_ptrIN3nix8fetchers5CacheEEC2ERKS3_.exit.i
  %33 = tail call ptr @__cxa_allocate_exception(i64 16) #25
  invoke void @_ZNSt16invalid_argumentC1EPKc(ptr noundef nonnull align 8 dereferenceable(16) %33, ptr noundef nonnull @.str.159)
          to label %34 unwind label %35

34:                                               ; preds = %32
  invoke void @__cxa_throw(ptr nonnull %33, ptr nonnull @_ZTISt16invalid_argument, ptr nonnull @_ZNSt16invalid_argumentD1Ev) #26
          to label %39 unwind label %37

35:                                               ; preds = %32
  %36 = landingpad { ptr, i32 }
          cleanup
  tail call void @__cxa_free_exception(ptr %33) #25
  br label %.body

37:                                               ; preds = %34
  %38 = landingpad { ptr, i32 }
          cleanup
  br label %.body

.body:                                            ; preds = %37, %35
  %.pn.i = phi { ptr, i32 } [ %38, %37 ], [ %36, %35 ]
  tail call void @_ZNSt10shared_ptrIN3nix8fetchers5CacheEED2Ev(ptr noundef nonnull align 8 dereferenceable(16) %0) #25
  call void @_ZNSt10shared_ptrIN3nix8fetchers5CacheEED2Ev(ptr noundef nonnull align 8 dereferenceable(16) %2) #25
  br label %77

39:                                               ; preds = %34
  unreachable

_ZN3nix3refINS_8fetchers5CacheEEC2ERKSt10shared_ptrIS2_E.exit: ; preds = %_ZNSt10shared_ptrIN3nix8fetchers5CacheEEC2ERKS3_.exit.i
  %40 = load ptr, ptr %12, align 8
  %.not.i.i.i4 = icmp eq ptr %40, null
  br i1 %.not.i.i.i4, label %_ZNSt10shared_ptrIN3nix8fetchers5CacheEED2Ev.exit, label %41

41:                                               ; preds = %_ZN3nix3refINS_8fetchers5CacheEEC2ERKSt10shared_ptrIS2_E.exit
  %42 = getelementptr inbounds i8, ptr %40, i64 8
  %43 = load atomic i64, ptr %42 acquire, align 8
  %44 = icmp eq i64 %43, 4294967297
  %45 = trunc i64 %43 to i32
  br i1 %44, label %46, label %51

46:                                               ; preds = %41
  store i32 0, ptr %42, align 8
  %47 = getelementptr inbounds i8, ptr %40, i64 12
  store i32 0, ptr %47, align 4
  %48 = load ptr, ptr %40, align 8
  %49 = getelementptr inbounds i8, ptr %48, i64 16
  %50 = load ptr, ptr %49, align 8
  tail call void %50(ptr noundef nonnull align 8 dereferenceable(16) %40) #25
  br label %_ZNSt16_Sp_counted_baseILN9__gnu_cxx12_Lock_policyE2EE24_M_release_last_use_coldEv.exit.sink.split.i.i.i.i

51:                                               ; preds = %41
  %52 = load i8, ptr @__libc_single_threaded, align 1
  %.not.i.i.i.i5 = icmp eq i8 %52, 0
  br i1 %.not.i.i.i.i5, label %55, label %53

53:                                               ; preds = %51
  %54 = add nsw i32 %45, -1
  store i32 %54, ptr %42, align 4
  br label %57

55:                                               ; preds = %51
  %56 = atomicrmw volatile add ptr %42, i32 -1 acq_rel, align 4
  br label %57

57:                                               ; preds = %55, %53
  %.0.i.i.i.i = phi i32 [ %45, %53 ], [ %56, %55 ]
  %58 = icmp eq i32 %.0.i.i.i.i, 1
  br i1 %58, label %59, label %_ZNSt10shared_ptrIN3nix8fetchers5CacheEED2Ev.exit

59:                                               ; preds = %57
  %60 = load ptr, ptr %40, align 8
  %61 = getelementptr inbounds i8, ptr %60, i64 16
  %62 = load ptr, ptr %61, align 8
  tail call void %62(ptr noundef nonnull align 8 dereferenceable(16) %40) #25
  %63 = getelementptr inbounds i8, ptr %40, i64 12
  %64 = load i8, ptr @__libc_single_threaded, align 1
  %.not.i.i.i.i.i.i = icmp eq i8 %64, 0
  br i1 %.not.i.i.i.i.i.i, label %68, label %65

65:                                               ; preds = %59
  %66 = load i32, ptr %63, align 4
  %67 = add nsw i32 %66, -1
  store i32 %67, ptr %63, align 4
  br label %70

68:                                               ; preds = %59
  %69 = atomicrmw volatile add ptr %63, i32 -1 acq_rel, align 4
  br label %70

70:                                               ; preds = %68, %65
  %.0.i.i.i.i.i.i = phi i32 [ %66, %65 ], [ %69, %68 ]
  %71 = icmp eq i32 %.0.i.i.i.i.i.i, 1
  br i1 %71, label %_ZNSt16_Sp_counted_baseILN9__gnu_cxx12_Lock_policyE2EE24_M_release_last_use_coldEv.exit.sink.split.i.i.i.i, label %_ZNSt10shared_ptrIN3nix8fetchers5CacheEED2Ev.exit

_ZNSt16_Sp_counted_baseILN9__gnu_cxx12_Lock_policyE2EE24_M_release_last_use_coldEv.exit.sink.split.i.i.i.i: ; preds = %70, %46
  %72 = load ptr, ptr %40, align 8
  %73 = getelementptr inbounds i8, ptr %72, i64 24
  %74 = load ptr, ptr %73, align 8
  tail call void %74(ptr noundef nonnull align 8 dereferenceable(16) %40) #25
  br label %_ZNSt10shared_ptrIN3nix8fetchers5CacheEED2Ev.exit

_ZNSt10shared_ptrIN3nix8fetchers5CacheEED2Ev.exit: ; preds = %_ZN3nix3refINS_8fetchers5CacheEEC2ERKSt10shared_ptrIS2_E.exit, %57, %70, %_ZNSt16_Sp_counted_baseILN9__gnu_cxx12_Lock_policyE2EE24_M_release_last_use_coldEv.exit.sink.split.i.i.i.i
  ret void

75:                                               ; preds = %7
  %76 = landingpad { ptr, i32 }
          cleanup
  tail call void @__cxa_guard_abort(ptr nonnull @_ZGVZN3nix8fetchers8getCacheEvE5cache) #25
  br label %77

77:                                               ; preds = %.body, %75
  %.pn = phi { ptr, i32 } [ %.pn.i, %.body ], [ %76, %75 ]
  resume { ptr, i32 } %.pn
}